; Function Attrs: mustprogress uwtable
define dso_local range(i64 268468225, -3758096384) i64 @_ZN4Luau7CodeGen3X6418AssemblyBuilderX645bytesEPKvmm(ptr noundef nonnull align 8 dereferenceable(252) %0, ptr noundef readonly captures(none) %1, i64 noundef %2, i64 noundef %3) local_unnamed_addr #0 align 2 {
  %5 = getelementptr inbounds nuw i8, ptr %0, i64 224
  %6 = load i64, ptr %5, align 8, !tbaa !50
  %7 = icmp ult i64 %6, %2
  br i1 %7, label %8, label %_ZN4Luau7CodeGen3X6418AssemblyBuilderX6412allocateDataEmm.exit

8:                                                ; preds = %4
  %9 = getelementptr inbounds nuw i8, ptr %0, i64 8
  %10 = load ptr, ptr %9, align 8, !tbaa !48
  %11 = load ptr, ptr %0, align 8, !tbaa !49
  %12 = ptrtoint ptr %10 to i64
  %13 = ptrtoint ptr %11 to i64
  %14 = sub i64 %12, %13
  %15 = shl i64 %14, 1
  tail call void @_ZNSt6vectorIhSaIhEE6resizeEm(ptr noundef nonnull align 8 dereferenceable(252) %0, i64 noundef %15)
  %16 = load ptr, ptr %0, align 8, !tbaa !49
  %17 = getelementptr inbounds nuw i8, ptr %16, i64 %14
  tail call void @llvm.memcpy.p0.p0.i64(ptr nonnull align 1 %17, ptr nonnull align 1 %16, i64 %14, i1 false)
  %18 = load ptr, ptr %0, align 8, !tbaa !49
  tail call void @llvm.memset.p0.i64(ptr nonnull align 1 %18, i8 0, i64 %14, i1 false)
  %19 = load i64, ptr %5, align 8, !tbaa !50
  %20 = add i64 %19, %14
  br label %_ZN4Luau7CodeGen3X6418AssemblyBuilderX6412allocateDataEmm.exit

_ZN4Luau7CodeGen3X6418AssemblyBuilderX6412allocateDataEmm.exit: ; preds = %4, %8
  %21 = phi i64 [ %20, %8 ], [ %6, %4 ]
  %22 = sub i64 %21, %2
  %23 = sub i64 0, %3
  %24 = and i64 %22, %23
  store i64 %24, ptr %5, align 8, !tbaa !50
  %25 = load ptr, ptr %0, align 8, !tbaa !49
  %26 = getelementptr inbounds nuw i8, ptr %25, i64 %24
  tail call void @llvm.memcpy.p0.p0.i64(ptr nonnull align 1 %26, ptr align 1 %1, i64 %2, i1 false)
  %27 = getelementptr inbounds nuw i8, ptr %0, i64 8
  %28 = load ptr, ptr %27, align 8, !tbaa !48
  %29 = load ptr, ptr %0, align 8, !tbaa !49
  %30 = ptrtoint ptr %28 to i64
  %31 = ptrtoint ptr %29 to i64
  %.neg = sub i64 %24, %30
  %32 = add i64 %.neg, %31
  %.sroa.5.0.insert.ext = shl i64 %32, 32
  %.sroa.0.0.insert.insert = or disjoint i64 %.sroa.5.0.insert.ext, 268468225
  ret i64 %.sroa.0.0.insert.insert
}